target datalayout = "e-m:e-p270:32:32-p271:32:32-p272:64:64-i64:64-i128:128-f80:128-n8:16:32:64-S128"
target triple = "x86_64-pc-linux-gnu"

%struct.lua_State = type { ptr, i8, i8, i8, i8, i16, %union.StkIdRel, ptr, ptr, %union.StkIdRel, %union.StkIdRel, ptr, %union.StkIdRel, ptr, ptr, ptr, %struct.CallInfo, ptr, i64, i32, i32, i32, i32, i32, %struct.anon.2 }
%union.StkIdRel = type { ptr }
%struct.CallInfo = type { %union.StkIdRel, %union.StkIdRel, ptr, ptr, %union.anon, %union.anon.1, i32 }
%union.anon = type { %struct.anon.0 }
%struct.anon.0 = type { ptr, i64, i64 }
%union.anon.1 = type { i32 }
%struct.anon.2 = type { i32, i32 }
%struct.global_State = type { ptr, ptr, i64, i64, i64, i64, %struct.stringtable, %struct.TValue, %struct.TValue, i32, [6 x i8], i8, i8, i8, i8, i8, i8, ptr, ptr, ptr, ptr, ptr, ptr, ptr, ptr, ptr, ptr, ptr, ptr, ptr, ptr, ptr, ptr, ptr, ptr, ptr, ptr, ptr, [25 x ptr], [9 x ptr], [53 x [2 x ptr]], ptr, ptr }
%struct.stringtable = type { ptr, i32, i32 }
%struct.TValue = type { %union.Value, i8 }
%union.Value = type { ptr }
%struct.Table = type { ptr, i8, i8, i8, i8, i32, ptr, ptr, ptr, ptr }
%struct.Udata = type { ptr, i8, i8, i16, i64, ptr, ptr, [1 x %union.UValue] }
%union.UValue = type { %struct.TValue }
%union.StackValue = type { %struct.TValue }

; Function Attrs: nounwind uwtable
define hidden zeroext i8 @luaT_callTMres(ptr noundef %0, ptr noundef %1, ptr noundef %2, ptr noundef %3, ptr noundef %4) #0 {
  %6 = alloca ptr, align 8
  %7 = alloca ptr, align 8
  %8 = alloca ptr, align 8
  %9 = alloca ptr, align 8
  %10 = alloca ptr, align 8
  %11 = alloca i64, align 8
  %12 = alloca ptr, align 8
  %13 = alloca ptr, align 8
  %14 = alloca ptr, align 8
  %15 = alloca ptr, align 8
  %16 = alloca ptr, align 8
  %17 = alloca ptr, align 8
  %18 = alloca ptr, align 8
  %19 = alloca ptr, align 8
  %20 = alloca ptr, align 8
  store ptr %0, ptr %6, align 8, !tbaa !4
  store ptr %1, ptr %7, align 8, !tbaa !28
  store ptr %2, ptr %8, align 8, !tbaa !28
  store ptr %3, ptr %9, align 8, !tbaa !28
  store ptr %4, ptr %10, align 8, !tbaa !43
  call void @llvm.lifetime.start.p0(i64 8, ptr %11) #6
  %21 = load ptr, ptr %10, align 8, !tbaa !43
  %22 = load ptr, ptr %6, align 8, !tbaa !4
  %23 = getelementptr inbounds nuw %struct.lua_State, ptr %22, i32 0, i32 10
  %24 = load ptr, ptr %23, align 8, !tbaa !36
  %25 = ptrtoint ptr %21 to i64
  %26 = ptrtoint ptr %24 to i64
  %27 = sub i64 %25, %26
  store i64 %27, ptr %11, align 8, !tbaa !48
  call void @llvm.lifetime.start.p0(i64 8, ptr %12) #6
  %28 = load ptr, ptr %6, align 8, !tbaa !4
  %29 = getelementptr inbounds nuw %struct.lua_State, ptr %28, i32 0, i32 6
  %30 = load ptr, ptr %29, align 8, !tbaa !36
  store ptr %30, ptr %12, align 8, !tbaa !43
  call void @llvm.lifetime.start.p0(i64 8, ptr %13) #6
  %31 = load ptr, ptr %12, align 8, !tbaa !43
  store ptr %31, ptr %13, align 8, !tbaa !28
  call void @llvm.lifetime.start.p0(i64 8, ptr %14) #6
  %32 = load ptr, ptr %7, align 8, !tbaa !28
  store ptr %32, ptr %14, align 8, !tbaa !28
  %33 = load ptr, ptr %13, align 8, !tbaa !28
  %34 = getelementptr inbounds nuw %struct.TValue, ptr %33, i32 0, i32 0
  %35 = load ptr, ptr %14, align 8, !tbaa !28
  %36 = getelementptr inbounds nuw %struct.TValue, ptr %35, i32 0, i32 0
  call void @llvm.memcpy.p0.p0.i64(ptr align 8 %34, ptr align 8 %36, i64 8, i1 false), !tbaa.struct !45
  %37 = load ptr, ptr %14, align 8, !tbaa !28
  %38 = getelementptr inbounds nuw %struct.TValue, ptr %37, i32 0, i32 1
  %39 = load i8, ptr %38, align 8, !tbaa !30
  %40 = load ptr, ptr %13, align 8, !tbaa !28
  %41 = getelementptr inbounds nuw %struct.TValue, ptr %40, i32 0, i32 1
  store i8 %39, ptr %41, align 8, !tbaa !30
  call void @llvm.lifetime.end.p0(i64 8, ptr %14) #6
  call void @llvm.lifetime.end.p0(i64 8, ptr %13) #6
  call void @llvm.lifetime.start.p0(i64 8, ptr %15) #6
  %42 = load ptr, ptr %12, align 8, !tbaa !43
  %43 = getelementptr inbounds %union.StackValue, ptr %42, i64 1
  store ptr %43, ptr %15, align 8, !tbaa !28
  call void @llvm.lifetime.start.p0(i64 8, ptr %16) #6
  %44 = load ptr, ptr %8, align 8, !tbaa !28
  store ptr %44, ptr %16, align 8, !tbaa !28
  %45 = load ptr, ptr %15, align 8, !tbaa !28
  %46 = getelementptr inbounds nuw %struct.TValue, ptr %45, i32 0, i32 0
  %47 = load ptr, ptr %16, align 8, !tbaa !28
  %48 = getelementptr inbounds nuw %struct.TValue, ptr %47, i32 0, i32 0
  call void @llvm.memcpy.p0.p0.i64(ptr align 8 %46, ptr align 8 %48, i64 8, i1 false), !tbaa.struct !45
  %49 = load ptr, ptr %16, align 8, !tbaa !28
  %50 = getelementptr inbounds nuw %struct.TValue, ptr %49, i32 0, i32 1
  %51 = load i8, ptr %50, align 8, !tbaa !30
  %52 = load ptr, ptr %15, align 8, !tbaa !28
  %53 = getelementptr inbounds nuw %struct.TValue, ptr %52, i32 0, i32 1
  store i8 %51, ptr %53, align 8, !tbaa !30
  call void @llvm.lifetime.end.p0(i64 8, ptr %16) #6
  call void @llvm.lifetime.end.p0(i64 8, ptr %15) #6
  call void @llvm.lifetime.start.p0(i64 8, ptr %17) #6
  %54 = load ptr, ptr %12, align 8, !tbaa !43
  %55 = getelementptr inbounds %union.StackValue, ptr %54, i64 2
  store ptr %55, ptr %17, align 8, !tbaa !28
  call void @llvm.lifetime.start.p0(i64 8, ptr %18) #6
  %56 = load ptr, ptr %9, align 8, !tbaa !28
  store ptr %56, ptr %18, align 8, !tbaa !28
  %57 = load ptr, ptr %17, align 8, !tbaa !28
  %58 = getelementptr inbounds nuw %struct.TValue, ptr %57, i32 0, i32 0
  %59 = load ptr, ptr %18, align 8, !tbaa !28
  %60 = getelementptr inbounds nuw %struct.TValue, ptr %59, i32 0, i32 0
  call void @llvm.memcpy.p0.p0.i64(ptr align 8 %58, ptr align 8 %60, i64 8, i1 false), !tbaa.struct !45
  %61 = load ptr, ptr %18, align 8, !tbaa !28
  %62 = getelementptr inbounds nuw %struct.TValue, ptr %61, i32 0, i32 1
  %63 = load i8, ptr %62, align 8, !tbaa !30
  %64 = load ptr, ptr %17, align 8, !tbaa !28
  %65 = getelementptr inbounds nuw %struct.TValue, ptr %64, i32 0, i32 1
  store i8 %63, ptr %65, align 8, !tbaa !30
  call void @llvm.lifetime.end.p0(i64 8, ptr %18) #6
  call void @llvm.lifetime.end.p0(i64 8, ptr %17) #6
  %66 = load ptr, ptr %6, align 8, !tbaa !4
  %67 = getelementptr inbounds nuw %struct.lua_State, ptr %66, i32 0, i32 6
  %68 = load ptr, ptr %67, align 8, !tbaa !36
  %69 = getelementptr inbounds %union.StackValue, ptr %68, i64 3
  store ptr %69, ptr %67, align 8, !tbaa !36
  %70 = load ptr, ptr %6, align 8, !tbaa !4
  %71 = getelementptr inbounds nuw %struct.lua_State, ptr %70, i32 0, i32 8
  %72 = load ptr, ptr %71, align 8, !tbaa !46
  %73 = getelementptr inbounds nuw %struct.CallInfo, ptr %72, i32 0, i32 6
  %74 = load i32, ptr %73, align 4, !tbaa !47
  %75 = and i32 %74, 1081344
  %76 = icmp ne i32 %75, 0
  br i1 %76, label %80, label %77

77:                                               ; preds = %5
  %78 = load ptr, ptr %6, align 8, !tbaa !4
  %79 = load ptr, ptr %12, align 8, !tbaa !43
  call void @luaD_call(ptr noundef %78, ptr noundef %79, i32 noundef 1)
  br label %83

80:                                               ; preds = %5
  %81 = load ptr, ptr %6, align 8, !tbaa !4
  %82 = load ptr, ptr %12, align 8, !tbaa !43
  call void @luaD_callnoyield(ptr noundef %81, ptr noundef %82, i32 noundef 1)
  br label %83

83:                                               ; preds = %80, %77
  %84 = load ptr, ptr %6, align 8, !tbaa !4
  %85 = getelementptr inbounds nuw %struct.lua_State, ptr %84, i32 0, i32 10
  %86 = load ptr, ptr %85, align 8, !tbaa !36
  %87 = load i64, ptr %11, align 8, !tbaa !48
  %88 = getelementptr inbounds i8, ptr %86, i64 %87
  store ptr %88, ptr %10, align 8, !tbaa !43
  call void @llvm.lifetime.start.p0(i64 8, ptr %19) #6
  %89 = load ptr, ptr %10, align 8, !tbaa !43
  store ptr %89, ptr %19, align 8, !tbaa !28
  call void @llvm.lifetime.start.p0(i64 8, ptr %20) #6
  %90 = load ptr, ptr %6, align 8, !tbaa !4
  %91 = getelementptr inbounds nuw %struct.lua_State, ptr %90, i32 0, i32 6
  %92 = load ptr, ptr %91, align 8, !tbaa !36
  %93 = getelementptr inbounds %union.StackValue, ptr %92, i32 -1
  store ptr %93, ptr %91, align 8, !tbaa !36
  store ptr %93, ptr %20, align 8, !tbaa !28
  %94 = load ptr, ptr %19, align 8, !tbaa !28
  %95 = getelementptr inbounds nuw %struct.TValue, ptr %94, i32 0, i32 0
  %96 = load ptr, ptr %20, align 8, !tbaa !28
  %97 = getelementptr inbounds nuw %struct.TValue, ptr %96, i32 0, i32 0
  call void @llvm.memcpy.p0.p0.i64(ptr align 8 %95, ptr align 8 %97, i64 8, i1 false), !tbaa.struct !45
  %98 = load ptr, ptr %20, align 8, !tbaa !28
  %99 = getelementptr inbounds nuw %struct.TValue, ptr %98, i32 0, i32 1
  %100 = load i8, ptr %99, align 8, !tbaa !30
  %101 = load ptr, ptr %19, align 8, !tbaa !28
  %102 = getelementptr inbounds nuw %struct.TValue, ptr %101, i32 0, i32 1
  store i8 %100, ptr %102, align 8, !tbaa !30
  call void @llvm.lifetime.end.p0(i64 8, ptr %20) #6
  call void @llvm.lifetime.end.p0(i64 8, ptr %19) #6
  %103 = load ptr, ptr %10, align 8, !tbaa !43
  %104 = getelementptr inbounds nuw %struct.TValue, ptr %103, i32 0, i32 1
  %105 = load i8, ptr %104, align 8, !tbaa !36
  %106 = zext i8 %105 to i32
  %107 = and i32 %106, 63
  %108 = trunc i32 %107 to i8
  call void @llvm.lifetime.end.p0(i64 8, ptr %12) #6
  call void @llvm.lifetime.end.p0(i64 8, ptr %11) #6
  ret i8 %108
}

; Function Attrs: nounwind uwtable
define hidden ptr @luaT_gettmbyobj(ptr noundef %0, ptr noundef %1, i32 noundef %2) #0 {
  %4 = alloca ptr, align 8
  %5 = alloca ptr, align 8
  %6 = alloca i32, align 4
  %7 = alloca ptr, align 8
  store ptr %0, ptr %4, align 8, !tbaa !4
  store ptr %1, ptr %5, align 8, !tbaa !28
  store i32 %2, ptr %6, align 4, !tbaa !9
  call void @llvm.lifetime.start.p0(i64 8, ptr %7) #6
  %8 = load ptr, ptr %5, align 8, !tbaa !28
  %9 = getelementptr inbounds nuw %struct.TValue, ptr %8, i32 0, i32 1
  %10 = load i8, ptr %9, align 8, !tbaa !30
  %11 = zext i8 %10 to i32
  %12 = and i32 %11, 15
  switch i32 %12, label %25 [
    i32 5, label %13
    i32 7, label %19
  ]

13:                                               ; preds = %3
  %14 = load ptr, ptr %5, align 8, !tbaa !28
  %15 = getelementptr inbounds nuw %struct.TValue, ptr %14, i32 0, i32 0
  %16 = load ptr, ptr %15, align 8, !tbaa !36
  %17 = getelementptr inbounds nuw %struct.Table, ptr %16, i32 0, i32 8
  %18 = load ptr, ptr %17, align 8, !tbaa !37
  store ptr %18, ptr %7, align 8, !tbaa !26
  br label %38

19:                                               ; preds = %3
  %20 = load ptr, ptr %5, align 8, !tbaa !28
  %21 = getelementptr inbounds nuw %struct.TValue, ptr %20, i32 0, i32 0
  %22 = load ptr, ptr %21, align 8, !tbaa !36
  %23 = getelementptr inbounds nuw %struct.Udata, ptr %22, i32 0, i32 5
  %24 = load ptr, ptr %23, align 8, !tbaa !38
  store ptr %24, ptr %7, align 8, !tbaa !26
  br label %38

25:                                               ; preds = %3
  %26 = load ptr, ptr %4, align 8, !tbaa !4
  %27 = getelementptr inbounds nuw %struct.lua_State, ptr %26, i32 0, i32 7
  %28 = load ptr, ptr %27, align 8, !tbaa !13
  %29 = getelementptr inbounds nuw %struct.global_State, ptr %28, i32 0, i32 39
  %30 = load ptr, ptr %5, align 8, !tbaa !28
  %31 = getelementptr inbounds nuw %struct.TValue, ptr %30, i32 0, i32 1
  %32 = load i8, ptr %31, align 8, !tbaa !30
  %33 = zext i8 %32 to i32
  %34 = and i32 %33, 15
  %35 = sext i32 %34 to i64
  %36 = getelementptr inbounds [9 x ptr], ptr %29, i64 0, i64 %35
  %37 = load ptr, ptr %36, align 8, !tbaa !26
  store ptr %37, ptr %7, align 8, !tbaa !26
  br label %38

38:                                               ; preds = %25, %19, %13
  %39 = load ptr, ptr %7, align 8, !tbaa !26
  %40 = icmp ne ptr %39, null
  br i1 %40, label %41, label %52

41:                                               ; preds = %38
  %42 = load ptr, ptr %7, align 8, !tbaa !26
  %43 = load ptr, ptr %4, align 8, !tbaa !4
  %44 = getelementptr inbounds nuw %struct.lua_State, ptr %43, i32 0, i32 7
  %45 = load ptr, ptr %44, align 8, !tbaa !13
  %46 = getelementptr inbounds nuw %struct.global_State, ptr %45, i32 0, i32 38
  %47 = load i32, ptr %6, align 4, !tbaa !9
  %48 = zext i32 %47 to i64
  %49 = getelementptr inbounds nuw [25 x ptr], ptr %46, i64 0, i64 %48
  %50 = load ptr, ptr %49, align 8, !tbaa !24
  %51 = call ptr @luaH_Hgetshortstr(ptr noundef %42, ptr noundef %50)
  br label %57

52:                                               ; preds = %38
  %53 = load ptr, ptr %4, align 8, !tbaa !4
  %54 = getelementptr inbounds nuw %struct.lua_State, ptr %53, i32 0, i32 7
  %55 = load ptr, ptr %54, align 8, !tbaa !13
  %56 = getelementptr inbounds nuw %struct.global_State, ptr %55, i32 0, i32 8
  br label %57

57:                                               ; preds = %52, %41
  %58 = phi ptr [ %51, %41 ], [ %56, %52 ]
  call void @llvm.lifetime.end.p0(i64 8, ptr %7) #6
  ret ptr %58
}

; Function Attrs: nounwind uwtable
define internal i32 @callbinTM(ptr noundef %0, ptr noundef %1, ptr noundef %2, ptr noundef %3, i32 noundef %4) #0 {
  %6 = alloca i32, align 4
  %7 = alloca ptr, align 8
  %8 = alloca ptr, align 8
  %9 = alloca ptr, align 8
  %10 = alloca ptr, align 8
  %11 = alloca i32, align 4
  %12 = alloca ptr, align 8
  %13 = alloca i32, align 4
  store ptr %0, ptr %7, align 8, !tbaa !4
  store ptr %1, ptr %8, align 8, !tbaa !28
  store ptr %2, ptr %9, align 8, !tbaa !28
  store ptr %3, ptr %10, align 8, !tbaa !43
  store i32 %4, ptr %11, align 4, !tbaa !9
  call void @llvm.lifetime.start.p0(i64 8, ptr %12) #6
  %14 = load ptr, ptr %7, align 8, !tbaa !4
  %15 = load ptr, ptr %8, align 8, !tbaa !28
  %16 = load i32, ptr %11, align 4, !tbaa !9
  %17 = call ptr @luaT_gettmbyobj(ptr noundef %14, ptr noundef %15, i32 noundef %16)
  store ptr %17, ptr %12, align 8, !tbaa !28
  %18 = load ptr, ptr %12, align 8, !tbaa !28
  %19 = getelementptr inbounds nuw %struct.TValue, ptr %18, i32 0, i32 1
  %20 = load i8, ptr %19, align 8, !tbaa !30
  %21 = zext i8 %20 to i32
  %22 = and i32 %21, 15
  %23 = icmp eq i32 %22, 0
  br i1 %23, label %24, label %29

24:                                               ; preds = %5
  %25 = load ptr, ptr %7, align 8, !tbaa !4
  %26 = load ptr, ptr %9, align 8, !tbaa !28
  %27 = load i32, ptr %11, align 4, !tbaa !9
  %28 = call ptr @luaT_gettmbyobj(ptr noundef %25, ptr noundef %26, i32 noundef %27)
  store ptr %28, ptr %12, align 8, !tbaa !28
  br label %29

29:                                               ; preds = %24, %5
  %30 = load ptr, ptr %12, align 8, !tbaa !28
  %31 = getelementptr inbounds nuw %struct.TValue, ptr %30, i32 0, i32 1
  %32 = load i8, ptr %31, align 8, !tbaa !30
  %33 = zext i8 %32 to i32
  %34 = and i32 %33, 15
  %35 = icmp eq i32 %34, 0
  br i1 %35, label %36, label %37

36:                                               ; preds = %29
  store i32 -1, ptr %6, align 4
  store i32 1, ptr %13, align 4
  br label %45

37:                                               ; preds = %29
  %38 = load ptr, ptr %7, align 8, !tbaa !4
  %39 = load ptr, ptr %12, align 8, !tbaa !28
  %40 = load ptr, ptr %8, align 8, !tbaa !28
  %41 = load ptr, ptr %9, align 8, !tbaa !28
  %42 = load ptr, ptr %10, align 8, !tbaa !43
  %43 = call zeroext i8 @luaT_callTMres(ptr noundef %38, ptr noundef %39, ptr noundef %40, ptr noundef %41, ptr noundef %42)
  %44 = zext i8 %43 to i32
  store i32 %44, ptr %6, align 4
  store i32 1, ptr %13, align 4
  br label %45

45:                                               ; preds = %37, %36
  call void @llvm.lifetime.end.p0(i64 8, ptr %12) #6
  %46 = load i32, ptr %6, align 4
  ret i32 %46
}