; Function Attrs: nounwind uwtable
define internal fastcc range(i32 -1, 64) i32 @callbinTM(ptr noundef %0, ptr noundef readonly captures(none) %1, ptr noundef readonly captures(none) %2, ptr noundef %3, i32 noundef %4) unnamed_addr #0 {
  %6 = getelementptr inbounds nuw i8, ptr %1, i64 8
  %7 = load i8, ptr %6, align 8, !tbaa !24
  %8 = and i8 %7, 15
  switch i8 %8, label %15 [
    i8 5, label %9
    i8 7, label %12
  ]

9:                                                ; preds = %5
  %10 = load ptr, ptr %1, align 8, !tbaa !31
  %11 = getelementptr inbounds nuw i8, ptr %10, i64 32
  br label %21

12:                                               ; preds = %5
  %13 = load ptr, ptr %1, align 8, !tbaa !31
  %14 = getelementptr inbounds nuw i8, ptr %13, i64 24
  br label %21

15:                                               ; preds = %5
  %16 = getelementptr inbounds nuw i8, ptr %0, i64 24
  %17 = load ptr, ptr %16, align 8, !tbaa !9
  %18 = getelementptr inbounds nuw i8, ptr %17, i64 480
  %19 = zext nneg i8 %8 to i64
  %20 = getelementptr inbounds nuw [9 x ptr], ptr %18, i64 0, i64 %19
  br label %21

21:                                               ; preds = %15, %12, %9
  %.0.in.i = phi ptr [ %20, %15 ], [ %14, %12 ], [ %11, %9 ]
  %.0.i = load ptr, ptr %.0.in.i, align 8, !tbaa !32
  %.not.i = icmp eq ptr %.0.i, null
  %22 = getelementptr inbounds nuw i8, ptr %0, i64 24
  %23 = load ptr, ptr %22, align 8, !tbaa !9
  br i1 %.not.i, label %30, label %24

24:                                               ; preds = %21
  %25 = getelementptr inbounds nuw i8, ptr %23, i64 280
  %26 = zext i32 %4 to i64
  %27 = getelementptr inbounds nuw [25 x ptr], ptr %25, i64 0, i64 %26
  %28 = load ptr, ptr %27, align 8, !tbaa !22
  %29 = tail call ptr @luaH_Hgetshortstr(ptr noundef nonnull %.0.i, ptr noundef %28) #5
  br label %luaT_gettmbyobj.exit

30:                                               ; preds = %21
  %31 = getelementptr inbounds nuw i8, ptr %23, i64 80
  br label %luaT_gettmbyobj.exit

luaT_gettmbyobj.exit:                             ; preds = %24, %30
  %32 = phi ptr [ %29, %24 ], [ %31, %30 ]
  %33 = getelementptr inbounds nuw i8, ptr %32, i64 8
  %34 = load i8, ptr %33, align 8, !tbaa !24
  %35 = and i8 %34, 15
  %36 = icmp eq i8 %35, 0
  br i1 %36, label %37, label %luaT_gettmbyobj.exit17

37:                                               ; preds = %luaT_gettmbyobj.exit
  %38 = getelementptr inbounds nuw i8, ptr %2, i64 8
  %39 = load i8, ptr %38, align 8, !tbaa !24
  %40 = and i8 %39, 15
  switch i8 %40, label %47 [
    i8 5, label %41
    i8 7, label %44
  ]

41:                                               ; preds = %37
  %42 = load ptr, ptr %2, align 8, !tbaa !31
  %43 = getelementptr inbounds nuw i8, ptr %42, i64 32
  br label %52

44:                                               ; preds = %37
  %45 = load ptr, ptr %2, align 8, !tbaa !31
  %46 = getelementptr inbounds nuw i8, ptr %45, i64 24
  br label %52

47:                                               ; preds = %37
  %48 = load ptr, ptr %22, align 8, !tbaa !9
  %49 = getelementptr inbounds nuw i8, ptr %48, i64 480
  %50 = zext nneg i8 %40 to i64
  %51 = getelementptr inbounds nuw [9 x ptr], ptr %49, i64 0, i64 %50
  br label %52

52:                                               ; preds = %47, %44, %41
  %.0.in.i14 = phi ptr [ %51, %47 ], [ %46, %44 ], [ %43, %41 ]
  %.0.i15 = load ptr, ptr %.0.in.i14, align 8, !tbaa !32
  %.not.i16 = icmp eq ptr %.0.i15, null
  %53 = load ptr, ptr %22, align 8, !tbaa !9
  br i1 %.not.i16, label %60, label %54

54:                                               ; preds = %52
  %55 = getelementptr inbounds nuw i8, ptr %53, i64 280
  %56 = zext i32 %4 to i64
  %57 = getelementptr inbounds nuw [25 x ptr], ptr %55, i64 0, i64 %56
  %58 = load ptr, ptr %57, align 8, !tbaa !22
  %59 = tail call ptr @luaH_Hgetshortstr(ptr noundef nonnull %.0.i15, ptr noundef %58) #5
  br label %luaT_gettmbyobj.exit17

60:                                               ; preds = %52
  %61 = getelementptr inbounds nuw i8, ptr %53, i64 80
  br label %luaT_gettmbyobj.exit17

luaT_gettmbyobj.exit17:                           ; preds = %60, %54, %luaT_gettmbyobj.exit
  %.0 = phi ptr [ %32, %luaT_gettmbyobj.exit ], [ %59, %54 ], [ %61, %60 ]
  %62 = getelementptr inbounds nuw i8, ptr %.0, i64 8
  %63 = load i8, ptr %62, align 8, !tbaa !24
  %64 = and i8 %63, 15
  %65 = icmp eq i8 %64, 0
  br i1 %65, label %105, label %66

66:                                               ; preds = %luaT_gettmbyobj.exit17
  %67 = getelementptr inbounds nuw i8, ptr %0, i64 48
  %68 = load ptr, ptr %67, align 8, !tbaa !31
  %69 = getelementptr inbounds nuw i8, ptr %0, i64 16
  %70 = load ptr, ptr %69, align 8, !tbaa !31
  %71 = load i64, ptr %.0, align 8, !tbaa !31
  store i64 %71, ptr %70, align 8, !tbaa !31
  %72 = load i8, ptr %62, align 8, !tbaa !24
  %73 = getelementptr inbounds nuw i8, ptr %70, i64 8
  store i8 %72, ptr %73, align 8, !tbaa !24
  %74 = getelementptr inbounds nuw i8, ptr %70, i64 16
  %75 = load i64, ptr %1, align 8, !tbaa !31
  store i64 %75, ptr %74, align 8, !tbaa !31
  %76 = load i8, ptr %6, align 8, !tbaa !24
  %77 = getelementptr inbounds nuw i8, ptr %70, i64 24
  store i8 %76, ptr %77, align 8, !tbaa !24
  %78 = getelementptr inbounds nuw i8, ptr %70, i64 32
  %79 = load i64, ptr %2, align 8, !tbaa !31
  store i64 %79, ptr %78, align 8, !tbaa !31
  %80 = getelementptr inbounds nuw i8, ptr %2, i64 8
  %81 = load i8, ptr %80, align 8, !tbaa !24
  %82 = getelementptr inbounds nuw i8, ptr %70, i64 40
  store i8 %81, ptr %82, align 8, !tbaa !24
  %83 = load ptr, ptr %69, align 8, !tbaa !31
  %84 = getelementptr inbounds nuw i8, ptr %83, i64 48
  store ptr %84, ptr %69, align 8, !tbaa !31
  %85 = getelementptr inbounds nuw i8, ptr %0, i64 32
  %86 = load ptr, ptr %85, align 8, !tbaa !39
  %87 = getelementptr inbounds nuw i8, ptr %86, i64 60
  %88 = load i32, ptr %87, align 4, !tbaa !40
  %89 = and i32 %88, 1081344
  %.not.i18 = icmp eq i32 %89, 0
  br i1 %.not.i18, label %90, label %91

90:                                               ; preds = %66
  tail call void @luaD_call(ptr noundef nonnull %0, ptr noundef nonnull %70, i32 noundef 1) #5
  br label %luaT_callTMres.exit

91:                                               ; preds = %66
  tail call void @luaD_callnoyield(ptr noundef nonnull %0, ptr noundef nonnull %70, i32 noundef 1) #5
  br label %luaT_callTMres.exit

luaT_callTMres.exit:                              ; preds = %90, %91
  %92 = ptrtoint ptr %3 to i64
  %93 = ptrtoint ptr %68 to i64
  %94 = sub i64 %92, %93
  %95 = load ptr, ptr %67, align 8, !tbaa !31
  %96 = getelementptr inbounds i8, ptr %95, i64 %94
  %97 = load ptr, ptr %69, align 8, !tbaa !31
  %98 = getelementptr inbounds i8, ptr %97, i64 -16
  store ptr %98, ptr %69, align 8, !tbaa !31
  %99 = load i64, ptr %98, align 8, !tbaa !31
  store i64 %99, ptr %96, align 8, !tbaa !31
  %100 = getelementptr inbounds i8, ptr %97, i64 -8
  %101 = load i8, ptr %100, align 8, !tbaa !24
  %102 = getelementptr inbounds nuw i8, ptr %96, i64 8
  store i8 %101, ptr %102, align 8, !tbaa !24
  %103 = and i8 %101, 63
  %104 = zext nneg i8 %103 to i32
  br label %105

105:                                              ; preds = %luaT_gettmbyobj.exit17, %luaT_callTMres.exit
  %.013 = phi i32 [ %104, %luaT_callTMres.exit ], [ -1, %luaT_gettmbyobj.exit17 ]
  ret i32 %.013
}